; Function Attrs: mustprogress nounwind uwtable
define hidden void @_ZN6OopMap15set_derived_oopEP9VMRegImplS1_(ptr nocapture noundef nonnull align 8 dereferenceable(32) %0, ptr noundef %1, ptr noundef %2) local_unnamed_addr #2 align 2 {
  %4 = alloca %class.OopMapValue, align 2
  %5 = alloca %class.OopMapValue, align 2
  %6 = icmp eq ptr %1, %2
  %7 = ptrtoint ptr %1 to i64
  %8 = trunc i64 %7 to i16
  %.tr.i = sub i16 %8, ptrtoint (ptr getelementptr inbounds (i8, ptr @all_VMRegs, i64 1) to i16)
  %9 = shl i16 %.tr.i, 2
  br i1 %6, label %10, label %17

10:                                               ; preds = %3
  call void @llvm.lifetime.start.p0(i64 4, ptr nonnull %5)
  store i16 %9, ptr %5, align 2
  %11 = getelementptr inbounds i8, ptr %5, i64 2
  store i16 -1, ptr %11, align 2
  %12 = getelementptr inbounds i8, ptr %0, i64 24
  %13 = load ptr, ptr %12, align 8
  call void @_ZN11OopMapValue8write_onEP21CompressedWriteStream(ptr noundef nonnull align 2 dereferenceable(4) %5, ptr noundef %13)
  %14 = getelementptr inbounds i8, ptr %0, i64 4
  %15 = load <2 x i32>, ptr %14, align 4
  %16 = add nsw <2 x i32> %15, <i32 1, i32 1>
  store <2 x i32> %16, ptr %14, align 4
  call void @llvm.lifetime.end.p0(i64 4, ptr nonnull %5)
  br label %29

17:                                               ; preds = %3
  call void @llvm.lifetime.start.p0(i64 4, ptr nonnull %4)
  %18 = or disjoint i16 %9, 3
  store i16 %18, ptr %4, align 2
  %19 = ptrtoint ptr %2 to i64
  %20 = trunc i64 %19 to i16
  %21 = sub i16 %20, ptrtoint (ptr getelementptr inbounds (i8, ptr @all_VMRegs, i64 1) to i16)
  %22 = getelementptr inbounds i8, ptr %4, i64 2
  store i16 %21, ptr %22, align 2
  %23 = getelementptr inbounds i8, ptr %0, i64 24
  %24 = load ptr, ptr %23, align 8
  call void @_ZN11OopMapValue8write_onEP21CompressedWriteStream(ptr noundef nonnull align 2 dereferenceable(4) %4, ptr noundef %24)
  %25 = getelementptr inbounds i8, ptr %0, i64 4
  %26 = load i32, ptr %25, align 4
  %27 = add nsw i32 %26, 1
  store i32 %27, ptr %25, align 4
  %28 = getelementptr inbounds i8, ptr %0, i64 16
  store i8 1, ptr %28, align 8
  call void @llvm.lifetime.end.p0(i64 4, ptr nonnull %4)
  br label %29

29:                                               ; preds = %17, %10
  ret void
}